; Function Attrs: mustprogress nounwind uwtable
define internal fastcc void @_ZSt21__inplace_stable_sortIN9__gnu_cxx17__normal_iteratorIPSt10unique_ptrIN12_GLOBAL__N_111IfConverter10IfcvtTokenESt14default_deleteIS5_EESt6vectorIS8_SaIS8_EEEENS0_5__ops15_Iter_comp_iterIPFbRKS8_SH_EEEEvT_SL_T0_(ptr %0, ptr %1, ptr %2) unnamed_addr #0 {
  %4 = ptrtoint ptr %1 to i64
  %5 = ptrtoint ptr %0 to i64
  %6 = sub i64 %4, %5
  %7 = ashr exact i64 %6, 3
  %8 = icmp slt i64 %7, 15
  br i1 %8, label %common.ret, label %9

common.ret:                                       ; preds = %3
  tail call fastcc void @_ZSt16__insertion_sortIN9__gnu_cxx17__normal_iteratorIPSt10unique_ptrIN12_GLOBAL__N_111IfConverter10IfcvtTokenESt14default_deleteIS5_EESt6vectorIS8_SaIS8_EEEENS0_5__ops15_Iter_comp_iterIPFbRKS8_SH_EEEEvT_SL_T0_(ptr %0, ptr %1, ptr %2)
  br label %common.ret24

common.ret24:                                     ; preds = %9, %common.ret
  ret void

9:                                                ; preds = %3
  %10 = lshr i64 %7, 1
  %11 = getelementptr inbounds %"class.std::unique_ptr.279", ptr %0, i64 %10
  tail call fastcc void @_ZSt21__inplace_stable_sortIN9__gnu_cxx17__normal_iteratorIPSt10unique_ptrIN12_GLOBAL__N_111IfConverter10IfcvtTokenESt14default_deleteIS5_EESt6vectorIS8_SaIS8_EEEENS0_5__ops15_Iter_comp_iterIPFbRKS8_SH_EEEEvT_SL_T0_(ptr %0, ptr %11, ptr %2)
  tail call fastcc void @_ZSt21__inplace_stable_sortIN9__gnu_cxx17__normal_iteratorIPSt10unique_ptrIN12_GLOBAL__N_111IfConverter10IfcvtTokenESt14default_deleteIS5_EESt6vectorIS8_SaIS8_EEEENS0_5__ops15_Iter_comp_iterIPFbRKS8_SH_EEEEvT_SL_T0_(ptr %11, ptr %1, ptr %2)
  %12 = ptrtoint ptr %11 to i64
  %13 = sub i64 %4, %12
  %14 = ashr exact i64 %13, 3
  tail call fastcc void @_ZSt22__merge_without_bufferIN9__gnu_cxx17__normal_iteratorIPSt10unique_ptrIN12_GLOBAL__N_111IfConverter10IfcvtTokenESt14default_deleteIS5_EESt6vectorIS8_SaIS8_EEEElNS0_5__ops15_Iter_comp_iterIPFbRKS8_SH_EEEEvT_SL_SL_T0_SM_T1_(ptr %0, ptr %11, ptr %1, i64 noundef %10, i64 noundef %14, ptr %2)
  br label %common.ret24
}